(dp0
S'BRAINS_INFO'
p1
(lp2
sS'MAPS_INFO'
p3
(lp4
(dp5
S'OBS_PARAMS'
p6
(lp7
(lp8
(F274.0
F295.0
tp9
a(F400.0
F11.11111068725586
tp10
aF0.0
aF0.0
aF0.0
aa(lp11
(F268.0
F189.0
tp12
a(F400.0
F11.11111068725586
tp13
aF0.0
aF0.0
aF0.0
aa(lp14
(F70.0
F236.0
tp15
a(F400.0
F11.11111068725586
tp16
aF0.0
aF0.0
aF90.0
aa(lp17
(F602.0
F53.0
tp18
a(F400.0
F11.11111068725586
tp19
aF0.0
aF0.0
aF135.0
aa(lp20
(F641.0
F223.0
tp21
a(F400.0
F11.11111068725586
tp22
aF0.0
aF0.0
aF157.5
aa(lp23
(F743.0
F64.0
tp24
a(F400.0
F11.11111068725586
tp25
aF0.0
aF0.0
aF45.0
aa(lp26
(F198.0
F420.0
tp27
a(F400.0
F11.11111068725586
tp28
aF0.0
aF0.0
aF90.0
aa(lp29
(F250.0
F61.0
tp30
a(F400.0
F11.11111068725586
tp31
aF0.0
aF0.0
aF270.0
aa(lp32
(F314.0
F423.0
tp33
a(F400.0
F11.11111068725586
tp34
aF0.0
aF0.0
aF90.0
aa(lp35
(F376.0
F65.0
tp36
a(F400.0
F11.11111068725586
tp37
aF0.0
aF0.0
aF90.0
aa(lp38
(F587.0
F375.0
tp39
a(F400.0
F11.11111068725586
tp40
aF0.0
aF0.0
aF45.0
aa(lp41
(F468.0
F16.0
tp42
a(F400.0
F11.11111068725586
tp43
aF0.0
aF0.0
aF67.5
aa(lp44
(F120.0
F226.0
tp45
a(F400.0
F11.11111068725586
tp46
aF0.0
aF0.0
aF90.0
aasS'GOALS_PARAMS'
p47
(lp48
(lp49
(I600
I150
tp50
aI5
aI0
aasa(dp51
g6
(lp52
(lp53
(F165.0
F179.0
tp54
a(F400.0
F11.11111068725586
tp55
aF0.0
aF0.0
aF180.0
aa(lp56
(F170.0
F298.0
tp57
a(F400.0
F11.11111068725586
tp58
aF0.0
aF0.0
aF0.0
aa(lp59
(F119.0
F275.0
tp60
a(F400.0
F11.11111068725586
tp61
aF0.0
aF0.0
aF90.0
aa(lp62
(F484.0
F250.0
tp63
a(F400.0
F11.11111068725586
tp64
aF0.0
aF0.0
aF157.5
aa(lp65
(F527.0
F106.0
tp66
a(F400.0
F11.11111068725586
tp67
aF0.0
aF0.0
aF337.5
aa(lp68
(F264.0
F398.0
tp69
a(F400.0
F11.11111068725586
tp70
aF0.0
aF0.0
aF67.5
aa(lp71
(F669.0
F155.0
tp72
a(F400.0
F11.11111068725586
tp73
aF0.0
aF0.0
aF90.0
aa(lp74
(F357.0
F10.0
tp75
a(F400.0
F11.11111068725586
tp76
aF0.0
aF0.0
aF90.0
aasg47
(lp77
(lp78
(I600
I150
tp79
aI5
aI0
aasa(dp80
g6
(lp81
(lp82
(F101.0
F241.0
tp83
a(F400.0
F11.11111068725586
tp84
aF0.0
aF0.0
aF270.0
aa(lp85
(F240.0
F296.0
tp86
a(F400.0
F11.11111068725586
tp87
aF0.0
aF0.0
aF0.0
aa(lp88
(F261.0
F201.0
tp89
a(F400.0
F11.11111068725586
tp90
aF0.0
aF0.0
aF0.0
aa(lp91
(F592.0
F128.0
tp92
a(F400.0
F11.11111068725586
tp93
aF0.0
aF0.0
aF157.5
aa(lp94
(F574.0
F241.0
tp95
a(F400.0
F11.11111068725586
tp96
aF0.0
aF0.0
aF157.5
aa(lp97
(F666.0
F141.0
tp98
a(F400.0
F11.11111068725586
tp99
aF0.0
aF0.0
aF45.0
aasg47
(lp100
(lp101
(I600
I150
tp102
aI5
aI0
aasasS'PARAMS_INFO'
p103
(lp104
s.