(dp0
S'BRAINS_INFO'
p1
(lp2
sS'MAPS_INFO'
p3
(dp4
I0
(dp5
S'OBS_PARAMS'
p6
(lp7
(lp8
(F400.0
F-20.0
tp9
a(F800.0
F50.0
tp10
aF0.0
aF0.0
aF0.0
aa(lp11
(F400.0
F520.0
tp12
a(F800.0
F50.0
tp13
aF0.0
aF0.0
aF0.0
aa(lp14
(F-20.0
F250.0
tp15
a(F50.0
F500.0
tp16
aF0.0
aF0.0
aF0.0
aa(lp17
(F820.0
F250.0
tp18
a(F50.0
F500.0
tp19
aF0.0
aF0.0
aF0.0
aa(lp20
(F332.0
F-6.0
tp21
a(F160.0
F10.0
tp22
aF0.0
aF0.0
aF0.0
aasS'GOALS_PARAMS'
p23
(lp24
sssS'PARAMS_INFO'
p25
(lp26
s.